target datalayout = "e-m:e-p270:32:32-p271:32:32-p272:64:64-i64:64-i128:128-f80:128-n8:16:32:64-S128"
target triple = "x86_64-pc-linux-gnu"

; Function Attrs: mustprogress nounwind uwtable
define linkonce_odr hidden void @_ZN2cv12cpu_baseline12acc_general_ItfEEvPKT_PT0_PKhiii(ptr noundef %0, ptr noundef %1, ptr noundef %2, i32 noundef %3, i32 noundef %4, i32 noundef %5) #2 comdat {
  %7 = alloca ptr, align 8
  %8 = alloca ptr, align 8
  %9 = alloca ptr, align 8
  %10 = alloca i32, align 4
  %11 = alloca i32, align 4
  %12 = alloca i32, align 4
  %13 = alloca i32, align 4
  %14 = alloca i32, align 4
  store ptr %0, ptr %7, align 8, !tbaa !19
  store ptr %1, ptr %8, align 8, !tbaa !8
  store ptr %2, ptr %9, align 8, !tbaa !3
  store i32 %3, ptr %10, align 4, !tbaa !10
  store i32 %4, ptr %11, align 4, !tbaa !10
  store i32 %5, ptr %12, align 4, !tbaa !10
  call void @llvm.lifetime.start.p0(i64 4, ptr %13) #4
  %15 = load i32, ptr %12, align 4, !tbaa !10
  store i32 %15, ptr %13, align 4, !tbaa !10
  %16 = load ptr, ptr %9, align 8, !tbaa !3
  %17 = icmp ne ptr %16, null
  br i1 %17, label %44, label %18

18:                                               ; preds = %6
  %19 = load i32, ptr %11, align 4, !tbaa !10
  %20 = load i32, ptr %10, align 4, !tbaa !10
  %21 = mul nsw i32 %20, %19
  store i32 %21, ptr %10, align 4, !tbaa !10
  br label %22

22:                                               ; preds = %40, %18
  %23 = load i32, ptr %13, align 4, !tbaa !10
  %24 = load i32, ptr %10, align 4, !tbaa !10
  %25 = icmp slt i32 %23, %24
  br i1 %25, label %26, label %43

26:                                               ; preds = %22
  %27 = load ptr, ptr %7, align 8, !tbaa !19
  %28 = load i32, ptr %13, align 4, !tbaa !10
  %29 = sext i32 %28 to i64
  %30 = getelementptr inbounds i16, ptr %27, i64 %29
  %31 = load i16, ptr %30, align 2, !tbaa !21
  %32 = zext i16 %31 to i32
  %33 = sitofp i32 %32 to float
  %34 = load ptr, ptr %8, align 8, !tbaa !8
  %35 = load i32, ptr %13, align 4, !tbaa !10
  %36 = sext i32 %35 to i64
  %37 = getelementptr inbounds float, ptr %34, i64 %36
  %38 = load float, ptr %37, align 4, !tbaa !13
  %39 = fadd float %38, %33
  store float %39, ptr %37, align 4, !tbaa !13
  br label %40

40:                                               ; preds = %26
  %41 = load i32, ptr %13, align 4, !tbaa !10
  %42 = add nsw i32 %41, 1
  store i32 %42, ptr %13, align 4, !tbaa !10
  br label %22, !llvm.loop !23

43:                                               ; preds = %22
  br label %105

44:                                               ; preds = %6
  %45 = load i32, ptr %13, align 4, !tbaa !10
  %46 = load i32, ptr %11, align 4, !tbaa !10
  %47 = mul nsw i32 %45, %46
  %48 = load ptr, ptr %7, align 8, !tbaa !19
  %49 = sext i32 %47 to i64
  %50 = getelementptr inbounds i16, ptr %48, i64 %49
  store ptr %50, ptr %7, align 8, !tbaa !19
  %51 = load i32, ptr %13, align 4, !tbaa !10
  %52 = load i32, ptr %11, align 4, !tbaa !10
  %53 = mul nsw i32 %51, %52
  %54 = load ptr, ptr %8, align 8, !tbaa !8
  %55 = sext i32 %53 to i64
  %56 = getelementptr inbounds float, ptr %54, i64 %55
  store ptr %56, ptr %8, align 8, !tbaa !8
  br label %57

57:                                               ; preds = %93, %44
  %58 = load i32, ptr %13, align 4, !tbaa !10
  %59 = load i32, ptr %10, align 4, !tbaa !10
  %60 = icmp slt i32 %58, %59
  br i1 %60, label %61, label %104

61:                                               ; preds = %57
  %62 = load ptr, ptr %9, align 8, !tbaa !3
  %63 = load i32, ptr %13, align 4, !tbaa !10
  %64 = sext i32 %63 to i64
  %65 = getelementptr inbounds i8, ptr %62, i64 %64
  %66 = load i8, ptr %65, align 1, !tbaa !12
  %67 = icmp ne i8 %66, 0
  br i1 %67, label %68, label %92

68:                                               ; preds = %61
  call void @llvm.lifetime.start.p0(i64 4, ptr %14) #4
  store i32 0, ptr %14, align 4, !tbaa !10
  br label %69

69:                                               ; preds = %88, %68
  %70 = load i32, ptr %14, align 4, !tbaa !10
  %71 = load i32, ptr %11, align 4, !tbaa !10
  %72 = icmp slt i32 %70, %71
  br i1 %72, label %74, label %73

73:                                               ; preds = %69
  call void @llvm.lifetime.end.p0(i64 4, ptr %14) #4
  br label %91

74:                                               ; preds = %69
  %75 = load ptr, ptr %7, align 8, !tbaa !19
  %76 = load i32, ptr %14, align 4, !tbaa !10
  %77 = sext i32 %76 to i64
  %78 = getelementptr inbounds i16, ptr %75, i64 %77
  %79 = load i16, ptr %78, align 2, !tbaa !21
  %80 = zext i16 %79 to i32
  %81 = sitofp i32 %80 to float
  %82 = load ptr, ptr %8, align 8, !tbaa !8
  %83 = load i32, ptr %14, align 4, !tbaa !10
  %84 = sext i32 %83 to i64
  %85 = getelementptr inbounds float, ptr %82, i64 %84
  %86 = load float, ptr %85, align 4, !tbaa !13
  %87 = fadd float %86, %81
  store float %87, ptr %85, align 4, !tbaa !13
  br label %88

88:                                               ; preds = %74
  %89 = load i32, ptr %14, align 4, !tbaa !10
  %90 = add nsw i32 %89, 1
  store i32 %90, ptr %14, align 4, !tbaa !10
  br label %69, !llvm.loop !24

91:                                               ; preds = %73
  br label %92

92:                                               ; preds = %91, %61
  br label %93

93:                                               ; preds = %92
  %94 = load i32, ptr %13, align 4, !tbaa !10
  %95 = add nsw i32 %94, 1
  store i32 %95, ptr %13, align 4, !tbaa !10
  %96 = load i32, ptr %11, align 4, !tbaa !10
  %97 = load ptr, ptr %7, align 8, !tbaa !19
  %98 = sext i32 %96 to i64
  %99 = getelementptr inbounds i16, ptr %97, i64 %98
  store ptr %99, ptr %7, align 8, !tbaa !19
  %100 = load i32, ptr %11, align 4, !tbaa !10
  %101 = load ptr, ptr %8, align 8, !tbaa !8
  %102 = sext i32 %100 to i64
  %103 = getelementptr inbounds float, ptr %101, i64 %102
  store ptr %103, ptr %8, align 8, !tbaa !8
  br label %57, !llvm.loop !25

104:                                              ; preds = %57
  br label %105

105:                                              ; preds = %104, %43
  call void @llvm.lifetime.end.p0(i64 4, ptr %13) #4
  ret void
}

; Function Attrs: mustprogress uwtable
define hidden void @_ZN2cv12cpu_baseline9acc_simd_EPKtPfPKhii(ptr noundef %0, ptr noundef %1, ptr noundef %2, i32 noundef %3, i32 noundef %4) #0 {
  %6 = alloca ptr, align 8
  %7 = alloca ptr, align 8
  %8 = alloca ptr, align 8
  %9 = alloca i32, align 4
  %10 = alloca i32, align 4
  %11 = alloca i32, align 4
  store ptr %0, ptr %6, align 8, !tbaa !19
  store ptr %1, ptr %7, align 8, !tbaa !8
  store ptr %2, ptr %8, align 8, !tbaa !3
  store i32 %3, ptr %9, align 4, !tbaa !10
  store i32 %4, ptr %10, align 4, !tbaa !10
  call void @llvm.lifetime.start.p0(i64 4, ptr %11) #4
  store i32 0, ptr %11, align 4, !tbaa !10
  %12 = load ptr, ptr %6, align 8, !tbaa !19
  %13 = load ptr, ptr %7, align 8, !tbaa !8
  %14 = load ptr, ptr %8, align 8, !tbaa !3
  %15 = load i32, ptr %9, align 4, !tbaa !10
  %16 = load i32, ptr %10, align 4, !tbaa !10
  %17 = load i32, ptr %11, align 4, !tbaa !10
  call void @_ZN2cv12cpu_baseline12acc_general_ItfEEvPKT_PT0_PKhiii(ptr noundef %12, ptr noundef %13, ptr noundef %14, i32 noundef %15, i32 noundef %16, i32 noundef %17)
  call void @llvm.lifetime.end.p0(i64 4, ptr %11) #4
  ret void
}

; Function Attrs: mustprogress uwtable
define hidden void @_ZN2cv10acc_16u32fEPKtPfPKhii(ptr noundef %0, ptr noundef %1, ptr noundef %2, i32 noundef %3, i32 noundef %4) #0 {
  %6 = alloca ptr, align 8
  %7 = alloca ptr, align 8
  %8 = alloca ptr, align 8
  %9 = alloca i32, align 4
  %10 = alloca i32, align 4
  store ptr %0, ptr %6, align 8, !tbaa !19
  store ptr %1, ptr %7, align 8, !tbaa !8
  store ptr %2, ptr %8, align 8, !tbaa !3
  store i32 %3, ptr %9, align 4, !tbaa !10
  store i32 %4, ptr %10, align 4, !tbaa !10
  %11 = load ptr, ptr %6, align 8, !tbaa !19
  %12 = load ptr, ptr %7, align 8, !tbaa !8
  %13 = load ptr, ptr %8, align 8, !tbaa !3
  %14 = load i32, ptr %9, align 4, !tbaa !10
  %15 = load i32, ptr %10, align 4, !tbaa !10
  call void @_ZN2cv12cpu_baseline9acc_simd_EPKtPfPKhii(ptr noundef %11, ptr noundef %12, ptr noundef %13, i32 noundef %14, i32 noundef %15)
  ret void
}